target datalayout = "e-m:e-p270:32:32-p271:32:32-p272:64:64-i64:64-i128:128-f80:128-n8:16:32:64-S128"
target triple = "x86_64-pc-linux-gnu"

%struct._uuid_t = type { i16, i8, [16 x i8] }
%struct._wmem_tree_key_t = type { i32, ptr }
%struct._packet_info = type { ptr, ptr, i32, i32, %struct.nstime_t, %struct.nstime_t, %struct.nstime_t, i8, ptr, ptr, ptr, ptr, %struct._address, %struct._address, %struct._address, %struct._address, %struct._address, %struct._address, i32, ptr, i8, [3 x i8], %struct.anon, i32, i32, i32, i32, ptr, i8, ptr, ptr, i16, i16, i32, i32, i16, i32, i32, ptr, ptr, ptr, i8, i8, i16, i16, i16, i32, i16, i16, ptr, ptr, ptr, ptr, ptr, i32, i32 }
%struct.nstime_t = type { i64, i32 }
%struct._address = type { i32, i32, ptr, ptr }
%struct.anon = type { i8, [3 x i8] }
%struct._bluetooth_data_t = type { i32, i32, ptr, ptr, ptr, ptr, ptr, ptr, ptr, ptr, ptr, ptr, ptr, i32, %union.anon }
%union.anon = type { ptr }
%struct._handle_data_t = type { %struct._uuid_t, i32 }

@handle_to_uuid = internal global ptr null, align 8
@.str.3231 = private unnamed_addr constant [22 x i8] c", Handle: 0x%04x (%s)\00", align 1
@.str.3232 = private unnamed_addr constant [26 x i8] c", Handle: 0x%04x (%s: %s)\00", align 1
@.str.3233 = private unnamed_addr constant [30 x i8] c", Handle: 0x%04x (%s: %s: %s)\00", align 1

; Function Attrs: nounwind null_pointer_is_valid sspstrong uwtable
define internal zeroext i1 @is_writeable_response(i8 noundef zeroext %0) #1 {
  %2 = alloca i8, align 1
  store i8 %0, ptr %2, align 1
  %3 = load i8, ptr %2, align 1
  %4 = zext i8 %3 to i32
  %5 = icmp eq i32 %4, 19
  br i1 %5, label %10, label %6

6:                                                ; preds = %1
  %7 = load i8, ptr %2, align 1
  %8 = zext i8 %7 to i32
  %9 = icmp eq i32 %8, 23
  br label %10

10:                                               ; preds = %6, %1
  %11 = phi i1 [ true, %1 ], [ %9, %6 ]
  ret i1 %11
}

; Function Attrs: nounwind null_pointer_is_valid sspstrong uwtable
define internal zeroext i1 @is_readable_response(i8 noundef zeroext %0) #1 {
  %2 = alloca i8, align 1
  store i8 %0, ptr %2, align 1
  %3 = load i8, ptr %2, align 1
  %4 = zext i8 %3 to i32
  %5 = icmp eq i32 %4, 11
  br i1 %5, label %18, label %6

6:                                                ; preds = %1
  %7 = load i8, ptr %2, align 1
  %8 = zext i8 %7 to i32
  %9 = icmp eq i32 %8, 13
  br i1 %9, label %18, label %10

10:                                               ; preds = %6
  %11 = load i8, ptr %2, align 1
  %12 = zext i8 %11 to i32
  %13 = icmp eq i32 %12, 9
  br i1 %13, label %18, label %14

14:                                               ; preds = %10
  %15 = load i8, ptr %2, align 1
  %16 = zext i8 %15 to i32
  %17 = icmp eq i32 %16, 15
  br label %18

18:                                               ; preds = %14, %10, %6, %1
  %19 = phi i1 [ true, %10 ], [ true, %6 ], [ true, %1 ], [ %17, %14 ]
  ret i1 %19
}

; Function Attrs: nounwind null_pointer_is_valid sspstrong uwtable
define internal zeroext i1 @is_writeable_request(i8 noundef zeroext %0) #1 {
  %2 = alloca i8, align 1
  store i8 %0, ptr %2, align 1
  %3 = load i8, ptr %2, align 1
  %4 = zext i8 %3 to i32
  %5 = icmp eq i32 %4, 18
  br i1 %5, label %10, label %6

6:                                                ; preds = %1
  %7 = load i8, ptr %2, align 1
  %8 = zext i8 %7 to i32
  %9 = icmp eq i32 %8, 22
  br label %10

10:                                               ; preds = %6, %1
  %11 = phi i1 [ true, %1 ], [ %9, %6 ]
  ret i1 %11
}

; Function Attrs: nounwind null_pointer_is_valid sspstrong uwtable
define internal zeroext i1 @is_readable_request(i8 noundef zeroext %0) #1 {
  %2 = alloca i8, align 1
  store i8 %0, ptr %2, align 1
  %3 = load i8, ptr %2, align 1
  %4 = zext i8 %3 to i32
  %5 = icmp eq i32 %4, 10
  br i1 %5, label %18, label %6

6:                                                ; preds = %1
  %7 = load i8, ptr %2, align 1
  %8 = zext i8 %7 to i32
  %9 = icmp eq i32 %8, 12
  br i1 %9, label %18, label %10

10:                                               ; preds = %6
  %11 = load i8, ptr %2, align 1
  %12 = zext i8 %11 to i32
  %13 = icmp eq i32 %12, 8
  br i1 %13, label %18, label %14

14:                                               ; preds = %10
  %15 = load i8, ptr %2, align 1
  %16 = zext i8 %15 to i32
  %17 = icmp eq i32 %16, 14
  br label %18

18:                                               ; preds = %14, %10, %6, %1
  %19 = phi i1 [ true, %10 ], [ true, %6 ], [ true, %1 ], [ %17, %14 ]
  ret i1 %19
}

; Function Attrs: null_pointer_is_valid sspstrong uwtable
define internal i32 @get_handle_db_direction(i8 noundef zeroext %0, i32 noundef %1) #0 {
  %3 = alloca i32, align 4
  %4 = alloca i8, align 1
  %5 = alloca i32, align 4
  store i8 %0, ptr %4, align 1
  store i32 %1, ptr %5, align 4
  %6 = load i8, ptr %4, align 1
  %7 = call zeroext i1 @is_readable_request(i8 noundef zeroext %6)
  br i1 %7, label %19, label %8

8:                                                ; preds = %2
  %9 = load i8, ptr %4, align 1
  %10 = call zeroext i1 @is_writeable_request(i8 noundef zeroext %9)
  br i1 %10, label %19, label %11

11:                                               ; preds = %8
  %12 = load i8, ptr %4, align 1
  %13 = zext i8 %12 to i32
  %14 = icmp eq i32 %13, 30
  br i1 %14, label %19, label %15

15:                                               ; preds = %11
  %16 = load i8, ptr %4, align 1
  %17 = zext i8 %16 to i32
  %18 = icmp eq i32 %17, 18
  br i1 %18, label %19, label %24

19:                                               ; preds = %15, %11, %8, %2
  %20 = load i32, ptr %5, align 4
  %21 = icmp ne i32 %20, 0
  %22 = xor i1 %21, true
  %23 = zext i1 %22 to i32
  store i32 %23, ptr %3, align 4
  br label %44

24:                                               ; preds = %15
  %25 = load i8, ptr %4, align 1
  %26 = call zeroext i1 @is_readable_response(i8 noundef zeroext %25)
  br i1 %26, label %30, label %27

27:                                               ; preds = %24
  %28 = load i8, ptr %4, align 1
  %29 = call zeroext i1 @is_writeable_response(i8 noundef zeroext %28)
  br i1 %29, label %30, label %32

30:                                               ; preds = %27, %24
  %31 = load i32, ptr %5, align 4
  store i32 %31, ptr %3, align 4
  br label %44

32:                                               ; preds = %27
  %33 = load i8, ptr %4, align 1
  %34 = zext i8 %33 to i32
  %35 = icmp eq i32 %34, 27
  br i1 %35, label %40, label %36

36:                                               ; preds = %32
  %37 = load i8, ptr %4, align 1
  %38 = zext i8 %37 to i32
  %39 = icmp eq i32 %38, 29
  br i1 %39, label %40, label %42

40:                                               ; preds = %36, %32
  %41 = load i32, ptr %5, align 4
  store i32 %41, ptr %3, align 4
  br label %44

42:                                               ; preds = %36
  %43 = load i32, ptr %5, align 4
  store i32 %43, ptr %3, align 4
  br label %44

44:                                               ; preds = %42, %40, %30, %19
  %45 = load i32, ptr %3, align 4
  ret i32 %45
}

; Function Attrs: alwaysinline nounwind
define internal ptr @memset.inline(ptr %0, i32 %1, i64 %2) #3 {
  %4 = alloca ptr, align 8
  %5 = alloca i32, align 4
  %6 = alloca i64, align 8
  store ptr %0, ptr %4, align 8
  store i32 %1, ptr %5, align 4
  store i64 %2, ptr %6, align 8
  %7 = load ptr, ptr %4, align 8
  %8 = load i32, ptr %5, align 4
  %9 = load i64, ptr %6, align 8
  %10 = load ptr, ptr %4, align 8
  %11 = call i64 @llvm.objectsize.i64.p0(ptr %10, i1 false, i1 true, i1 true)
  %12 = call ptr @__memset_chk(ptr noundef %7, i32 noundef %8, i64 noundef %9, i64 noundef %11) #12
  ret ptr %12
}

; Function Attrs: null_pointer_is_valid sspstrong uwtable
define hidden void @get_gatt_bluetooth_uuid_from_handle(ptr dead_on_unwind noalias writable sret(%struct._uuid_t) align 2 %0, ptr noundef %1, i32 noundef %2, i8 noundef zeroext %3, ptr noundef %4) #0 {
  %6 = alloca ptr, align 8
  %7 = alloca i32, align 4
  %8 = alloca i8, align 1
  %9 = alloca ptr, align 8
  %10 = alloca [5 x %struct._wmem_tree_key_t], align 16
  %11 = alloca i32, align 4
  %12 = alloca i32, align 4
  %13 = alloca ptr, align 8
  %14 = alloca ptr, align 8
  store ptr %1, ptr %6, align 8
  store i32 %2, ptr %7, align 4
  store i8 %3, ptr %8, align 1
  store ptr %4, ptr %9, align 8
  call void @llvm.lifetime.start.p0(i64 80, ptr %10) #12
  call void @llvm.lifetime.start.p0(i64 4, ptr %11) #12
  call void @llvm.lifetime.start.p0(i64 4, ptr %12) #12
  call void @llvm.lifetime.start.p0(i64 8, ptr %13) #12
  call void @llvm.lifetime.start.p0(i64 8, ptr %14) #12
  %15 = call ptr @memset.inline(ptr noundef %0, i32 noundef 0, i64 noundef 20) #12
  %16 = load ptr, ptr %9, align 8
  %17 = icmp ne ptr %16, null
  br i1 %17, label %18, label %69

18:                                               ; preds = %5
  %19 = load ptr, ptr %6, align 8
  %20 = getelementptr inbounds nuw %struct._packet_info, ptr %19, i32 0, i32 3
  %21 = load i32, ptr %20, align 4
  store i32 %21, ptr %11, align 4
  %22 = load i8, ptr %8, align 1
  %23 = load ptr, ptr %6, align 8
  %24 = getelementptr inbounds nuw %struct._packet_info, ptr %23, i32 0, i32 37
  %25 = load i32, ptr %24, align 4
  %26 = call i32 @get_handle_db_direction(i8 noundef zeroext %22, i32 noundef %25)
  store i32 %26, ptr %12, align 4
  %27 = getelementptr [5 x %struct._wmem_tree_key_t], ptr %10, i64 0, i64 0
  %28 = getelementptr inbounds nuw %struct._wmem_tree_key_t, ptr %27, i32 0, i32 0
  store i32 1, ptr %28, align 16
  %29 = load ptr, ptr %9, align 8
  %30 = getelementptr inbounds nuw %struct._bluetooth_data_t, ptr %29, i32 0, i32 0
  %31 = getelementptr [5 x %struct._wmem_tree_key_t], ptr %10, i64 0, i64 0
  %32 = getelementptr inbounds nuw %struct._wmem_tree_key_t, ptr %31, i32 0, i32 1
  store ptr %30, ptr %32, align 8
  %33 = getelementptr [5 x %struct._wmem_tree_key_t], ptr %10, i64 0, i64 1
  %34 = getelementptr inbounds nuw %struct._wmem_tree_key_t, ptr %33, i32 0, i32 0
  store i32 1, ptr %34, align 16
  %35 = load ptr, ptr %9, align 8
  %36 = getelementptr inbounds nuw %struct._bluetooth_data_t, ptr %35, i32 0, i32 1
  %37 = getelementptr [5 x %struct._wmem_tree_key_t], ptr %10, i64 0, i64 1
  %38 = getelementptr inbounds nuw %struct._wmem_tree_key_t, ptr %37, i32 0, i32 1
  store ptr %36, ptr %38, align 8
  %39 = getelementptr [5 x %struct._wmem_tree_key_t], ptr %10, i64 0, i64 2
  %40 = getelementptr inbounds nuw %struct._wmem_tree_key_t, ptr %39, i32 0, i32 0
  store i32 1, ptr %40, align 16
  %41 = getelementptr [5 x %struct._wmem_tree_key_t], ptr %10, i64 0, i64 2
  %42 = getelementptr inbounds nuw %struct._wmem_tree_key_t, ptr %41, i32 0, i32 1
  store ptr %12, ptr %42, align 8
  %43 = getelementptr [5 x %struct._wmem_tree_key_t], ptr %10, i64 0, i64 3
  %44 = getelementptr inbounds nuw %struct._wmem_tree_key_t, ptr %43, i32 0, i32 0
  store i32 1, ptr %44, align 16
  %45 = getelementptr [5 x %struct._wmem_tree_key_t], ptr %10, i64 0, i64 3
  %46 = getelementptr inbounds nuw %struct._wmem_tree_key_t, ptr %45, i32 0, i32 1
  store ptr %7, ptr %46, align 8
  %47 = getelementptr [5 x %struct._wmem_tree_key_t], ptr %10, i64 0, i64 4
  %48 = getelementptr inbounds nuw %struct._wmem_tree_key_t, ptr %47, i32 0, i32 0
  store i32 0, ptr %48, align 16
  %49 = getelementptr [5 x %struct._wmem_tree_key_t], ptr %10, i64 0, i64 4
  %50 = getelementptr inbounds nuw %struct._wmem_tree_key_t, ptr %49, i32 0, i32 1
  store ptr null, ptr %50, align 8
  %51 = load ptr, ptr @handle_to_uuid, align 8
  %52 = getelementptr inbounds [5 x %struct._wmem_tree_key_t], ptr %10, i64 0, i64 0
  %53 = call ptr @wmem_tree_lookup32_array(ptr noundef %51, ptr noundef %52)
  store ptr %53, ptr %14, align 8
  %54 = load ptr, ptr %14, align 8
  %55 = icmp ne ptr %54, null
  br i1 %55, label %56, label %60

56:                                               ; preds = %18
  %57 = load ptr, ptr %14, align 8
  %58 = load i32, ptr %11, align 4
  %59 = call ptr @wmem_tree_lookup32_le(ptr noundef %57, i32 noundef %58)
  br label %61

60:                                               ; preds = %18
  br label %61

61:                                               ; preds = %60, %56
  %62 = phi ptr [ %59, %56 ], [ null, %60 ]
  store ptr %62, ptr %13, align 8
  %63 = load ptr, ptr %13, align 8
  %64 = icmp ne ptr %63, null
  br i1 %64, label %65, label %68

65:                                               ; preds = %61
  %66 = load ptr, ptr %13, align 8
  %67 = getelementptr inbounds nuw %struct._handle_data_t, ptr %66, i32 0, i32 0
  call void @llvm.memcpy.p0.p0.i64(ptr align 2 %0, ptr align 4 %67, i64 20, i1 false)
  br label %68

68:                                               ; preds = %65, %61
  br label %69

69:                                               ; preds = %68, %5
  call void @llvm.lifetime.end.p0(i64 8, ptr %14) #12
  call void @llvm.lifetime.end.p0(i64 8, ptr %13) #12
  call void @llvm.lifetime.end.p0(i64 4, ptr %12) #12
  call void @llvm.lifetime.end.p0(i64 4, ptr %11) #12
  call void @llvm.lifetime.end.p0(i64 80, ptr %10) #12
  ret void
}

; Function Attrs: null_pointer_is_valid sspstrong uwtable
define internal void @col_append_info_by_handle(ptr noundef %0, i16 noundef zeroext %1, i8 noundef zeroext %2, ptr noundef %3) #0 {
  %5 = alloca ptr, align 8
  %6 = alloca i16, align 2
  %7 = alloca i8, align 1
  %8 = alloca ptr, align 8
  %9 = alloca %struct._uuid_t, align 2
  %10 = alloca %struct._uuid_t, align 2
  %11 = alloca %struct._uuid_t, align 2
  %12 = alloca i32, align 4
  %13 = alloca %struct._uuid_t, align 2
  %14 = alloca %struct._uuid_t, align 2
  %15 = alloca %struct._uuid_t, align 2
  store ptr %0, ptr %5, align 8
  store i16 %1, ptr %6, align 2
  store i8 %2, ptr %7, align 1
  store ptr %3, ptr %8, align 8
  call void @llvm.lifetime.start.p0(i64 20, ptr %9) #12
  call void @llvm.lifetime.start.p0(i64 20, ptr %10) #12
  call void @llvm.lifetime.start.p0(i64 20, ptr %11) #12
  %16 = load ptr, ptr %8, align 8
  %17 = icmp ne ptr %16, null
  br i1 %17, label %19, label %18

18:                                               ; preds = %4
  store i32 1, ptr %12, align 4
  br label %84

19:                                               ; preds = %4
  call void @llvm.lifetime.start.p0(i64 20, ptr %13) #12
  %20 = load ptr, ptr %5, align 8
  %21 = load i16, ptr %6, align 2
  %22 = zext i16 %21 to i32
  %23 = load i8, ptr %7, align 1
  %24 = load ptr, ptr %8, align 8
  call void @get_service_uuid_from_handle(ptr dead_on_unwind writable sret(%struct._uuid_t) align 2 %13, ptr noundef %20, i32 noundef %22, i8 noundef zeroext %23, ptr noundef %24)
  call void @llvm.memcpy.p0.p0.i64(ptr align 2 %9, ptr align 2 %13, i64 20, i1 false)
  call void @llvm.lifetime.end.p0(i64 20, ptr %13) #12
  call void @llvm.lifetime.start.p0(i64 20, ptr %14) #12
  %25 = load ptr, ptr %5, align 8
  %26 = load i16, ptr %6, align 2
  %27 = zext i16 %26 to i32
  %28 = load i8, ptr %7, align 1
  %29 = load ptr, ptr %8, align 8
  call void @get_characteristic_uuid_from_handle(ptr dead_on_unwind writable sret(%struct._uuid_t) align 2 %14, ptr noundef %25, i32 noundef %27, i8 noundef zeroext %28, ptr noundef %29)
  call void @llvm.memcpy.p0.p0.i64(ptr align 2 %10, ptr align 2 %14, i64 20, i1 false)
  call void @llvm.lifetime.end.p0(i64 20, ptr %14) #12
  call void @llvm.lifetime.start.p0(i64 20, ptr %15) #12
  %30 = load ptr, ptr %5, align 8
  %31 = load i16, ptr %6, align 2
  %32 = zext i16 %31 to i32
  %33 = load i8, ptr %7, align 1
  %34 = load ptr, ptr %8, align 8
  call void @get_gatt_bluetooth_uuid_from_handle(ptr dead_on_unwind writable sret(%struct._uuid_t) align 2 %15, ptr noundef %30, i32 noundef %32, i8 noundef zeroext %33, ptr noundef %34)
  call void @llvm.memcpy.p0.p0.i64(ptr align 2 %11, ptr align 2 %15, i64 20, i1 false)
  call void @llvm.lifetime.end.p0(i64 20, ptr %15) #12
  %35 = call i32 @memcmp(ptr noundef %9, ptr noundef %11, i64 noundef 20) #13
  %36 = icmp ne i32 %35, 0
  br i1 %36, label %47, label %37

37:                                               ; preds = %19
  %38 = load ptr, ptr %5, align 8
  %39 = getelementptr inbounds nuw %struct._packet_info, ptr %38, i32 0, i32 1
  %40 = load ptr, ptr %39, align 8
  %41 = load i16, ptr %6, align 2
  %42 = zext i16 %41 to i32
  %43 = load ptr, ptr %5, align 8
  %44 = getelementptr inbounds nuw %struct._packet_info, ptr %43, i32 0, i32 51
  %45 = load ptr, ptr %44, align 8
  %46 = call ptr @print_bluetooth_uuid(ptr noundef %45, ptr noundef %11)
  call void (ptr, i32, ptr, ...) @col_append_fstr(ptr noundef %40, i32 noundef 25, ptr noundef @.str.3231, i32 noundef %42, ptr noundef %46)
  br label %83

47:                                               ; preds = %19
  %48 = call i32 @memcmp(ptr noundef %10, ptr noundef %11, i64 noundef 20) #13
  %49 = icmp ne i32 %48, 0
  br i1 %49, label %64, label %50

50:                                               ; preds = %47
  %51 = load ptr, ptr %5, align 8
  %52 = getelementptr inbounds nuw %struct._packet_info, ptr %51, i32 0, i32 1
  %53 = load ptr, ptr %52, align 8
  %54 = load i16, ptr %6, align 2
  %55 = zext i16 %54 to i32
  %56 = load ptr, ptr %5, align 8
  %57 = getelementptr inbounds nuw %struct._packet_info, ptr %56, i32 0, i32 51
  %58 = load ptr, ptr %57, align 8
  %59 = call ptr @print_bluetooth_uuid(ptr noundef %58, ptr noundef %9)
  %60 = load ptr, ptr %5, align 8
  %61 = getelementptr inbounds nuw %struct._packet_info, ptr %60, i32 0, i32 51
  %62 = load ptr, ptr %61, align 8
  %63 = call ptr @print_bluetooth_uuid(ptr noundef %62, ptr noundef %11)
  call void (ptr, i32, ptr, ...) @col_append_fstr(ptr noundef %53, i32 noundef 25, ptr noundef @.str.3232, i32 noundef %55, ptr noundef %59, ptr noundef %63)
  br label %82

64:                                               ; preds = %47
  %65 = load ptr, ptr %5, align 8
  %66 = getelementptr inbounds nuw %struct._packet_info, ptr %65, i32 0, i32 1
  %67 = load ptr, ptr %66, align 8
  %68 = load i16, ptr %6, align 2
  %69 = zext i16 %68 to i32
  %70 = load ptr, ptr %5, align 8
  %71 = getelementptr inbounds nuw %struct._packet_info, ptr %70, i32 0, i32 51
  %72 = load ptr, ptr %71, align 8
  %73 = call ptr @print_bluetooth_uuid(ptr noundef %72, ptr noundef %9)
  %74 = load ptr, ptr %5, align 8
  %75 = getelementptr inbounds nuw %struct._packet_info, ptr %74, i32 0, i32 51
  %76 = load ptr, ptr %75, align 8
  %77 = call ptr @print_bluetooth_uuid(ptr noundef %76, ptr noundef %10)
  %78 = load ptr, ptr %5, align 8
  %79 = getelementptr inbounds nuw %struct._packet_info, ptr %78, i32 0, i32 51
  %80 = load ptr, ptr %79, align 8
  %81 = call ptr @print_bluetooth_uuid(ptr noundef %80, ptr noundef %11)
  call void (ptr, i32, ptr, ...) @col_append_fstr(ptr noundef %67, i32 noundef 25, ptr noundef @.str.3233, i32 noundef %69, ptr noundef %73, ptr noundef %77, ptr noundef %81)
  br label %82

82:                                               ; preds = %64, %50
  br label %83

83:                                               ; preds = %82, %37
  store i32 0, ptr %12, align 4
  br label %84

84:                                               ; preds = %83, %18
  call void @llvm.lifetime.end.p0(i64 20, ptr %11) #12
  call void @llvm.lifetime.end.p0(i64 20, ptr %10) #12
  call void @llvm.lifetime.end.p0(i64 20, ptr %9) #12
  %85 = load i32, ptr %12, align 4
  switch i32 %85, label %87 [
    i32 0, label %86
    i32 1, label %86
  ]

86:                                               ; preds = %84, %84
  ret void

87:                                               ; preds = %84
  unreachable
}