; Function Attrs: null_pointer_is_valid sspstrong uwtable
define internal fastcc void @col_append_info_by_handle(ptr noundef readonly captures(none) %0, i16 noundef zeroext %1, i8 noundef zeroext %2, ptr noundef %3) unnamed_addr #1 {
  %5 = alloca i32, align 4
  %6 = alloca [5 x %struct._wmem_tree_key_t], align 16
  %7 = alloca i32, align 4
  %8 = alloca %struct._uuid_t, align 2
  %9 = alloca %struct._uuid_t, align 2
  %10 = alloca %struct._uuid_t, align 2
  %11 = alloca %struct._uuid_t, align 2
  call void @llvm.lifetime.start.p0(i64 20, ptr nonnull %8) #14
  call void @llvm.lifetime.start.p0(i64 20, ptr nonnull %9) #14
  call void @llvm.lifetime.start.p0(i64 20, ptr nonnull %10) #14
  %.not = icmp eq ptr %3, null
  br i1 %.not, label %56, label %12

12:                                               ; preds = %4
  %13 = zext i16 %1 to i32
  call fastcc void @get_service_uuid_from_handle(ptr dead_on_unwind noalias nonnull writable align 2 %8, ptr noundef %0, i32 noundef %13, i8 noundef zeroext %2, ptr noundef nonnull %3)
  call fastcc void @get_characteristic_uuid_from_handle(ptr dead_on_unwind noalias nonnull writable align 2 %9, ptr noundef %0, i32 noundef %13, i8 noundef zeroext %2, ptr noundef nonnull %3)
  call void @llvm.lifetime.start.p0(i64 20, ptr nonnull %11)
  call void @llvm.experimental.noalias.scope.decl(metadata !21)
  call void @llvm.lifetime.start.p0(i64 4, ptr nonnull %5)
  store i32 %13, ptr %5, align 4, !noalias !21
  call void @llvm.lifetime.start.p0(i64 80, ptr nonnull %6) #14, !noalias !21
  call void @llvm.lifetime.start.p0(i64 4, ptr nonnull %7) #14, !noalias !21
  call void @llvm.memset.p0.i64(ptr noundef nonnull align 2 dereferenceable(20) %11, i8 0, i64 20, i1 false), !alias.scope !21
  %14 = getelementptr inbounds nuw i8, ptr %0, i64 20
  %15 = load i32, ptr %14, align 4, !noalias !21
  %16 = getelementptr inbounds nuw i8, ptr %0, i64 348
  %17 = load i32, ptr %16, align 4, !noalias !21
  %18 = and i8 %2, -7
  %switch.selectcmp.i.i.i = icmp eq i8 %18, 8
  %19 = and i8 %2, -5
  %20 = icmp eq i8 %19, 18
  %or.cond.i.i = or i1 %switch.selectcmp.i.i.i, %20
  %cond.i.i = icmp eq i8 %2, 30
  %or.cond24.i.i = or i1 %cond.i.i, %or.cond.i.i
  %.not.i.i = icmp eq i32 %17, 0
  %21 = zext i1 %.not.i.i to i32
  %.0.i.i = select i1 %or.cond24.i.i, i32 %21, i32 %17
  store i32 %.0.i.i, ptr %7, align 4, !noalias !21
  store i32 1, ptr %6, align 16, !noalias !21
  %22 = getelementptr inbounds nuw i8, ptr %6, i64 8
  store ptr %3, ptr %22, align 8, !noalias !21
  %23 = getelementptr inbounds nuw i8, ptr %6, i64 16
  store i32 1, ptr %23, align 16, !noalias !21
  %24 = getelementptr inbounds nuw i8, ptr %3, i64 4
  %25 = getelementptr inbounds nuw i8, ptr %6, i64 24
  store ptr %24, ptr %25, align 8, !noalias !21
  %26 = getelementptr inbounds nuw i8, ptr %6, i64 32
  store i32 1, ptr %26, align 16, !noalias !21
  %27 = getelementptr inbounds nuw i8, ptr %6, i64 40
  store ptr %7, ptr %27, align 8, !noalias !21
  %28 = getelementptr inbounds nuw i8, ptr %6, i64 48
  store i32 1, ptr %28, align 16, !noalias !21
  %29 = getelementptr inbounds nuw i8, ptr %6, i64 56
  store ptr %5, ptr %29, align 8, !noalias !21
  %30 = getelementptr inbounds nuw i8, ptr %6, i64 64
  store i32 0, ptr %30, align 16, !noalias !21
  %31 = getelementptr inbounds nuw i8, ptr %6, i64 72
  store ptr null, ptr %31, align 8, !noalias !21
  %32 = load ptr, ptr @handle_to_uuid, align 8, !noalias !21
  %33 = call ptr @wmem_tree_lookup32_array(ptr noundef %32, ptr noundef nonnull %6), !noalias !21
  %.not12.i = icmp eq ptr %33, null
  br i1 %.not12.i, label %get_gatt_bluetooth_uuid_from_handle.exit, label %34

34:                                               ; preds = %12
  %35 = call ptr @wmem_tree_lookup32_le(ptr noundef nonnull %33, i32 noundef %15), !noalias !21
  %.not13.i = icmp eq ptr %35, null
  br i1 %.not13.i, label %get_gatt_bluetooth_uuid_from_handle.exit, label %36

36:                                               ; preds = %34
  call void @llvm.memcpy.p0.p0.i64(ptr noundef nonnull align 2 dereferenceable(20) %11, ptr noundef nonnull align 4 dereferenceable(20) %35, i64 20, i1 false)
  br label %get_gatt_bluetooth_uuid_from_handle.exit

get_gatt_bluetooth_uuid_from_handle.exit:         ; preds = %12, %34, %36
  call void @llvm.lifetime.end.p0(i64 4, ptr nonnull %7) #14, !noalias !21
  call void @llvm.lifetime.end.p0(i64 80, ptr nonnull %6) #14, !noalias !21
  call void @llvm.lifetime.end.p0(i64 4, ptr nonnull %5)
  call void @llvm.memcpy.p0.p0.i64(ptr noundef nonnull align 2 dereferenceable(20) %10, ptr noundef nonnull align 2 dereferenceable(20) %11, i64 20, i1 false)
  call void @llvm.lifetime.end.p0(i64 20, ptr nonnull %11)
  %bcmp = call i32 @bcmp(ptr noundef nonnull dereferenceable(20) %8, ptr noundef nonnull dereferenceable(20) %10, i64 20)
  %.not24 = icmp eq i32 %bcmp, 0
  br i1 %.not24, label %37, label %43

37:                                               ; preds = %get_gatt_bluetooth_uuid_from_handle.exit
  %38 = getelementptr inbounds nuw i8, ptr %0, i64 8
  %39 = load ptr, ptr %38, align 8
  %40 = getelementptr inbounds nuw i8, ptr %0, i64 408
  %41 = load ptr, ptr %40, align 8
  %42 = call ptr @print_bluetooth_uuid(ptr noundef %41, ptr noundef nonnull %10)
  call void (ptr, i32, ptr, ...) @col_append_fstr(ptr noundef %39, i32 noundef 25, ptr noundef nonnull @.str.3231, i32 noundef %13, ptr noundef %42)
  br label %56

43:                                               ; preds = %get_gatt_bluetooth_uuid_from_handle.exit
  %bcmp25 = call i32 @bcmp(ptr noundef nonnull dereferenceable(20) %9, ptr noundef nonnull dereferenceable(20) %10, i64 20)
  %.not26 = icmp eq i32 %bcmp25, 0
  %44 = getelementptr inbounds nuw i8, ptr %0, i64 8
  %45 = load ptr, ptr %44, align 8
  %46 = getelementptr inbounds nuw i8, ptr %0, i64 408
  %47 = load ptr, ptr %46, align 8
  %48 = call ptr @print_bluetooth_uuid(ptr noundef %47, ptr noundef nonnull %8)
  %49 = load ptr, ptr %46, align 8
  br i1 %.not26, label %50, label %52

50:                                               ; preds = %43
  %51 = call ptr @print_bluetooth_uuid(ptr noundef %49, ptr noundef nonnull %10)
  call void (ptr, i32, ptr, ...) @col_append_fstr(ptr noundef %45, i32 noundef 25, ptr noundef nonnull @.str.3232, i32 noundef %13, ptr noundef %48, ptr noundef %51)
  br label %56

52:                                               ; preds = %43
  %53 = call ptr @print_bluetooth_uuid(ptr noundef %49, ptr noundef nonnull %9)
  %54 = load ptr, ptr %46, align 8
  %55 = call ptr @print_bluetooth_uuid(ptr noundef %54, ptr noundef nonnull %10)
  call void (ptr, i32, ptr, ...) @col_append_fstr(ptr noundef %45, i32 noundef 25, ptr noundef nonnull @.str.3233, i32 noundef %13, ptr noundef %48, ptr noundef %53, ptr noundef %55)
  br label %56

56:                                               ; preds = %37, %52, %50, %4
  call void @llvm.lifetime.end.p0(i64 20, ptr nonnull %10) #14
  call void @llvm.lifetime.end.p0(i64 20, ptr nonnull %9) #14
  call void @llvm.lifetime.end.p0(i64 20, ptr nonnull %8) #14
  ret void
}